; ModuleID = 'source-C-CXX/37/432.c'
source_filename = "source-C-CXX/37/432.c"
target datalayout = "e-m:e-p270:32:32-p271:32:32-p272:64:64-i64:64-f80:128-n8:16:32:64-S128"
target triple = "x86_64-pc-linux-gnu"

@.str = private unnamed_addr constant [3 x i8] c"%d\00", align 1
@.str.1 = private unnamed_addr constant [4 x i8] c"%lf\00", align 1
@.str.2 = private unnamed_addr constant [7 x i8] c"%.5lf\0A\00", align 1

; Function Attrs: nofree nounwind sspstrong uwtable
define dso_local i32 @main() local_unnamed_addr #0 {
  %1 = alloca i32, align 4
  %2 = alloca [50 x i32], align 16
  %3 = alloca [100 x double], align 16
  %4 = bitcast i32* %1 to i8*
  call void @llvm.lifetime.start.p0i8(i64 4, i8* nonnull %4) #4
  %5 = bitcast [50 x i32]* %2 to i8*
  call void @llvm.lifetime.start.p0i8(i64 200, i8* nonnull %5) #4
  %6 = bitcast [100 x double]* %3 to i8*
  call void @llvm.lifetime.start.p0i8(i64 800, i8* nonnull %6) #4
  %7 = call i32 (i8*, ...) @__isoc99_scanf(i8* getelementptr inbounds ([3 x i8], [3 x i8]* @.str, i64 0, i64 0), i32* nonnull %1)
  %8 = load i32, i32* %1, align 4, !tbaa !5
  %9 = icmp sgt i32 %8, 0
  br i1 %9, label %10, label %156

10:                                               ; preds = %0, %146
  %11 = phi i64 [ %152, %146 ], [ 0, %0 ]
  %12 = getelementptr inbounds [50 x i32], [50 x i32]* %2, i64 0, i64 %11
  %13 = call i32 (i8*, ...) @__isoc99_scanf(i8* getelementptr inbounds ([3 x i8], [3 x i8]* @.str, i64 0, i64 0), i32* nonnull %12)
  %14 = load i32, i32* %12, align 4, !tbaa !5
  %15 = icmp sgt i32 %14, 0
  br i1 %15, label %29, label %16

16:                                               ; preds = %10
  %17 = sitofp i32 %14 to double
  br label %146

18:                                               ; preds = %29
  %19 = icmp sgt i32 %34, 0
  br i1 %19, label %22, label %20

20:                                               ; preds = %18
  %21 = sitofp i32 %34 to double
  br label %146

22:                                               ; preds = %18
  %23 = zext i32 %34 to i64
  %24 = add nsw i64 %23, -1
  %25 = and i64 %23, 7
  %26 = icmp ult i64 %24, 7
  br i1 %26, label %75, label %27

27:                                               ; preds = %22
  %28 = and i64 %23, 4294967288
  br label %37

29:                                               ; preds = %10, %29
  %30 = phi i64 [ %33, %29 ], [ 0, %10 ]
  %31 = getelementptr inbounds [100 x double], [100 x double]* %3, i64 0, i64 %30
  %32 = call i32 (i8*, ...) @__isoc99_scanf(i8* getelementptr inbounds ([4 x i8], [4 x i8]* @.str.1, i64 0, i64 0), double* nonnull %31)
  %33 = add nuw nsw i64 %30, 1
  %34 = load i32, i32* %12, align 4, !tbaa !5
  %35 = sext i32 %34 to i64
  %36 = icmp slt i64 %33, %35
  br i1 %36, label %29, label %18, !llvm.loop !9

37:                                               ; preds = %37, %27
  %38 = phi i64 [ 0, %27 ], [ %72, %37 ]
  %39 = phi double [ 0.000000e+00, %27 ], [ %71, %37 ]
  %40 = phi i64 [ %28, %27 ], [ %73, %37 ]
  %41 = getelementptr inbounds [100 x double], [100 x double]* %3, i64 0, i64 %38
  %42 = load double, double* %41, align 16, !tbaa !11
  %43 = fadd double %39, %42
  %44 = or i64 %38, 1
  %45 = getelementptr inbounds [100 x double], [100 x double]* %3, i64 0, i64 %44
  %46 = load double, double* %45, align 8, !tbaa !11
  %47 = fadd double %43, %46
  %48 = or i64 %38, 2
  %49 = getelementptr inbounds [100 x double], [100 x double]* %3, i64 0, i64 %48
  %50 = load double, double* %49, align 16, !tbaa !11
  %51 = fadd double %47, %50
  %52 = or i64 %38, 3
  %53 = getelementptr inbounds [100 x double], [100 x double]* %3, i64 0, i64 %52
  %54 = load double, double* %53, align 8, !tbaa !11
  %55 = fadd double %51, %54
  %56 = or i64 %38, 4
  %57 = getelementptr inbounds [100 x double], [100 x double]* %3, i64 0, i64 %56
  %58 = load double, double* %57, align 16, !tbaa !11
  %59 = fadd double %55, %58
  %60 = or i64 %38, 5
  %61 = getelementptr inbounds [100 x double], [100 x double]* %3, i64 0, i64 %60
  %62 = load double, double* %61, align 8, !tbaa !11
  %63 = fadd double %59, %62
  %64 = or i64 %38, 6
  %65 = getelementptr inbounds [100 x double], [100 x double]* %3, i64 0, i64 %64
  %66 = load double, double* %65, align 16, !tbaa !11
  %67 = fadd double %63, %66
  %68 = or i64 %38, 7
  %69 = getelementptr inbounds [100 x double], [100 x double]* %3, i64 0, i64 %68
  %70 = load double, double* %69, align 8, !tbaa !11
  %71 = fadd double %67, %70
  %72 = add nuw nsw i64 %38, 8
  %73 = add i64 %40, -8
  %74 = icmp eq i64 %73, 0
  br i1 %74, label %75, label %37, !llvm.loop !13

75:                                               ; preds = %37, %22
  %76 = phi double [ undef, %22 ], [ %71, %37 ]
  %77 = phi i64 [ 0, %22 ], [ %72, %37 ]
  %78 = phi double [ 0.000000e+00, %22 ], [ %71, %37 ]
  %79 = icmp eq i64 %25, 0
  br i1 %79, label %90, label %80

80:                                               ; preds = %75, %80
  %81 = phi i64 [ %87, %80 ], [ %77, %75 ]
  %82 = phi double [ %86, %80 ], [ %78, %75 ]
  %83 = phi i64 [ %88, %80 ], [ %25, %75 ]
  %84 = getelementptr inbounds [100 x double], [100 x double]* %3, i64 0, i64 %81
  %85 = load double, double* %84, align 8, !tbaa !11
  %86 = fadd double %82, %85
  %87 = add nuw nsw i64 %81, 1
  %88 = add i64 %83, -1
  %89 = icmp eq i64 %88, 0
  br i1 %89, label %90, label %80, !llvm.loop !14

90:                                               ; preds = %80, %75
  %91 = phi double [ %76, %75 ], [ %86, %80 ]
  %92 = sitofp i32 %34 to double
  %93 = fdiv double %91, %92
  br i1 %19, label %94, label %146

94:                                               ; preds = %90
  %95 = and i64 %23, 3
  %96 = icmp ult i64 %24, 3
  br i1 %96, label %129, label %97

97:                                               ; preds = %94
  %98 = and i64 %23, 4294967292
  br label %99

99:                                               ; preds = %99, %97
  %100 = phi i64 [ 0, %97 ], [ %126, %99 ]
  %101 = phi double [ 0.000000e+00, %97 ], [ %125, %99 ]
  %102 = phi i64 [ %98, %97 ], [ %127, %99 ]
  %103 = getelementptr inbounds [100 x double], [100 x double]* %3, i64 0, i64 %100
  %104 = load double, double* %103, align 16, !tbaa !11
  %105 = fsub double %104, %93
  %106 = fmul double %105, %105
  %107 = fadd double %101, %106
  %108 = or i64 %100, 1
  %109 = getelementptr inbounds [100 x double], [100 x double]* %3, i64 0, i64 %108
  %110 = load double, double* %109, align 8, !tbaa !11
  %111 = fsub double %110, %93
  %112 = fmul double %111, %111
  %113 = fadd double %107, %112
  %114 = or i64 %100, 2
  %115 = getelementptr inbounds [100 x double], [100 x double]* %3, i64 0, i64 %114
  %116 = load double, double* %115, align 16, !tbaa !11
  %117 = fsub double %116, %93
  %118 = fmul double %117, %117
  %119 = fadd double %113, %118
  %120 = or i64 %100, 3
  %121 = getelementptr inbounds [100 x double], [100 x double]* %3, i64 0, i64 %120
  %122 = load double, double* %121, align 8, !tbaa !11
  %123 = fsub double %122, %93
  %124 = fmul double %123, %123
  %125 = fadd double %119, %124
  %126 = add nuw nsw i64 %100, 4
  %127 = add i64 %102, -4
  %128 = icmp eq i64 %127, 0
  br i1 %128, label %129, label %99, !llvm.loop !16

129:                                              ; preds = %99, %94
  %130 = phi double [ undef, %94 ], [ %125, %99 ]
  %131 = phi i64 [ 0, %94 ], [ %126, %99 ]
  %132 = phi double [ 0.000000e+00, %94 ], [ %125, %99 ]
  %133 = icmp eq i64 %95, 0
  br i1 %133, label %146, label %134

134:                                              ; preds = %129, %134
  %135 = phi i64 [ %143, %134 ], [ %131, %129 ]
  %136 = phi double [ %142, %134 ], [ %132, %129 ]
  %137 = phi i64 [ %144, %134 ], [ %95, %129 ]
  %138 = getelementptr inbounds [100 x double], [100 x double]* %3, i64 0, i64 %135
  %139 = load double, double* %138, align 8, !tbaa !11
  %140 = fsub double %139, %93
  %141 = fmul double %140, %140
  %142 = fadd double %136, %141
  %143 = add nuw nsw i64 %135, 1
  %144 = add i64 %137, -1
  %145 = icmp eq i64 %144, 0
  br i1 %145, label %146, label %134, !llvm.loop !17

146:                                              ; preds = %129, %134, %16, %20, %90
  %147 = phi double [ %92, %90 ], [ %21, %20 ], [ %17, %16 ], [ %92, %134 ], [ %92, %129 ]
  %148 = phi double [ 0.000000e+00, %90 ], [ 0.000000e+00, %20 ], [ 0.000000e+00, %16 ], [ %130, %129 ], [ %142, %134 ]
  %149 = fdiv double %148, %147
  %150 = call double @sqrt(double %149) #4
  %151 = call i32 (i8*, ...) @printf(i8* nonnull dereferenceable(1) getelementptr inbounds ([7 x i8], [7 x i8]* @.str.2, i64 0, i64 0), double %150)
  %152 = add nuw nsw i64 %11, 1
  %153 = load i32, i32* %1, align 4, !tbaa !5
  %154 = sext i32 %153 to i64
  %155 = icmp slt i64 %152, %154
  br i1 %155, label %10, label %156, !llvm.loop !18

156:                                              ; preds = %146, %0
  call void @llvm.lifetime.end.p0i8(i64 800, i8* nonnull %6) #4
  call void @llvm.lifetime.end.p0i8(i64 200, i8* nonnull %5) #4
  call void @llvm.lifetime.end.p0i8(i64 4, i8* nonnull %4) #4
  ret i32 0
}

; Function Attrs: argmemonly mustprogress nofree nosync nounwind willreturn
declare void @llvm.lifetime.start.p0i8(i64 immarg, i8* nocapture) #1

; Function Attrs: nofree nounwind
declare noundef i32 @__isoc99_scanf(i8* nocapture noundef readonly, ...) local_unnamed_addr #2

; Function Attrs: mustprogress nofree nounwind willreturn
declare double @sqrt(double) local_unnamed_addr #3

; Function Attrs: nofree nounwind
declare noundef i32 @printf(i8* nocapture noundef readonly, ...) local_unnamed_addr #2

; Function Attrs: argmemonly mustprogress nofree nosync nounwind willreturn
declare void @llvm.lifetime.end.p0i8(i64 immarg, i8* nocapture) #1


!llvm.module.flags = !{!0, !1, !2, !3}
!llvm.ident = !{!4}

!0 = !{i32 1, !"wchar_size", i32 4}
!1 = !{i32 7, !"PIC Level", i32 2}
!2 = !{i32 7, !"PIE Level", i32 2}
!3 = !{i32 7, !"uwtable", i32 1}
!4 = !{!"clang version 13.0.0"}
!5 = !{!6, !6, i64 0}
!6 = !{!"int", !7, i64 0}
!7 = !{!"omnipotent char", !8, i64 0}
!8 = !{!"Simple C/C++ TBAA"}
!9 = distinct !{!9, !10}
!10 = !{!"llvm.loop.mustprogress"}
!11 = !{!12, !12, i64 0}
!12 = !{!"double", !7, i64 0}
!13 = distinct !{!13, !10}
!14 = distinct !{!14, !15}
!15 = !{!"llvm.loop.unroll.disable"}
!16 = distinct !{!16, !10}
!17 = distinct !{!17, !15}
!18 = distinct !{!18, !10}
